target datalayout = "e-m:e-p270:32:32-p271:32:32-p272:64:64-i64:64-i128:128-f80:128-n8:16:32:64-S128"
target triple = "x86_64-pc-linux-gnu"

%"struct.faiss::ClusteringParameters" = type <{ i32, i32, i8, i8, i8, i8, i8, [3 x i8], i32, i32, i32, [4 x i8], i64, i8, i8, [6 x i8] }>
%"struct.faiss::ProductQuantizer" = type { %"struct.faiss::Quantizer", i64, i64, i64, i64, i8, i32, %"struct.faiss::ClusteringParameters", ptr, %"class.std::vector.5", %"class.std::vector.5", %"class.std::vector.5", %"class.std::vector.5" }
%"struct.faiss::Quantizer" = type { ptr, i64, i64 }
%"class.std::vector.5" = type { %"struct.std::_Vector_base.6" }
%"struct.std::_Vector_base.6" = type { %"struct.std::_Vector_base<float, std::allocator<float>>::_Vector_impl" }
%"struct.std::_Vector_base<float, std::allocator<float>>::_Vector_impl" = type { %"struct.std::_Vector_base<float, std::allocator<float>>::_Vector_impl_data" }
%"struct.std::_Vector_base<float, std::allocator<float>>::_Vector_impl_data" = type { ptr, ptr, ptr }
%"struct.faiss::(anonymous namespace)::QueryTables" = type { ptr, ptr, i32, ptr, i32, i8, i32, i32, ptr, ptr, ptr, ptr, %"class.std::vector.5", %"class.std::vector.45", ptr, i64, float, %"class.std::vector.50", i64 }
%"class.std::vector.45" = type { %"struct.std::_Vector_base.46" }
%"struct.std::_Vector_base.46" = type { %"struct.std::_Vector_base<const float *, std::allocator<const float *>>::_Vector_impl" }
%"struct.std::_Vector_base<const float *, std::allocator<const float *>>::_Vector_impl" = type { %"struct.std::_Vector_base<const float *, std::allocator<const float *>>::_Vector_impl_data" }
%"struct.std::_Vector_base<const float *, std::allocator<const float *>>::_Vector_impl_data" = type { ptr, ptr, ptr }
%"class.std::vector.50" = type { %"struct.std::_Vector_base.51" }
%"struct.std::_Vector_base.51" = type { %"struct.std::_Vector_base<unsigned char, std::allocator<unsigned char>>::_Vector_impl" }
%"struct.std::_Vector_base<unsigned char, std::allocator<unsigned char>>::_Vector_impl" = type { %"struct.std::_Vector_base<unsigned char, std::allocator<unsigned char>>::_Vector_impl_data" }
%"struct.std::_Vector_base<unsigned char, std::allocator<unsigned char>>::_Vector_impl_data" = type { ptr, ptr, ptr }
%"struct.faiss::(anonymous namespace)::IVFPQScannerT.63" = type <{ %"struct.faiss::(anonymous namespace)::QueryTables", ptr, ptr, i64, float, [4 x i8] }>
%"struct.faiss::PQDecoder16" = type { ptr }

; Function Attrs: inlinehint mustprogress nounwind uwtable
define linkonce_odr noundef i64 @_ZN5faiss11PQDecoder166decodeEv(ptr noundef nonnull align 8 dereferenceable(8) %0) #0 comdat align 2 {
  %2 = alloca ptr, align 8
  store ptr %0, ptr %2, align 8, !tbaa !578
  %3 = load ptr, ptr %2, align 8
  %4 = getelementptr inbounds nuw %"struct.faiss::PQDecoder16", ptr %3, i32 0, i32 0
  %5 = load ptr, ptr %4, align 8, !tbaa !580
  %6 = getelementptr inbounds nuw i16, ptr %5, i32 1
  store ptr %6, ptr %4, align 8, !tbaa !580
  %7 = load i16, ptr %5, align 2, !tbaa !583
  %8 = zext i16 %7 to i64
  ret i64 %8
}

; Function Attrs: inlinehint mustprogress nounwind uwtable
define linkonce_odr void @_ZN5faiss11PQDecoder16C2EPKhi(ptr noundef nonnull align 8 dereferenceable(8) %0, ptr noundef %1, i32 noundef %2) unnamed_addr #0 comdat align 2 {
  %4 = alloca ptr, align 8
  %5 = alloca ptr, align 8
  %6 = alloca i32, align 4
  store ptr %0, ptr %4, align 8, !tbaa !578
  store ptr %1, ptr %5, align 8, !tbaa !13
  store i32 %2, ptr %6, align 4, !tbaa !72
  %7 = load ptr, ptr %4, align 8
  %8 = getelementptr inbounds nuw %"struct.faiss::PQDecoder16", ptr %7, i32 0, i32 0
  %9 = load ptr, ptr %5, align 8, !tbaa !13
  store ptr %9, ptr %8, align 8, !tbaa !580
  ret void
}

; Function Attrs: inlinehint mustprogress uwtable
define linkonce_odr noundef float @_ZN5faiss28distance_single_code_genericINS_11PQDecoder16EEEfmmPKfPKh(i64 noundef %0, i64 noundef %1, ptr noundef %2, ptr noundef %3) #7 comdat {
  %5 = alloca i64, align 8
  %6 = alloca i64, align 8
  %7 = alloca ptr, align 8
  %8 = alloca ptr, align 8
  %9 = alloca %"struct.faiss::PQDecoder16", align 8
  %10 = alloca i64, align 8
  %11 = alloca ptr, align 8
  %12 = alloca float, align 4
  %13 = alloca i64, align 8
  store i64 %0, ptr %5, align 8, !tbaa !11
  store i64 %1, ptr %6, align 8, !tbaa !11
  store ptr %2, ptr %7, align 8, !tbaa !15
  store ptr %3, ptr %8, align 8, !tbaa !13
  call void @llvm.lifetime.start.p0(i64 8, ptr %9) #18
  %14 = load ptr, ptr %8, align 8, !tbaa !13
  %15 = load i64, ptr %6, align 8, !tbaa !11
  %16 = trunc i64 %15 to i32
  call void @_ZN5faiss11PQDecoder16C2EPKhi(ptr noundef nonnull align 8 dereferenceable(8) %9, ptr noundef %14, i32 noundef %16)
  call void @llvm.lifetime.start.p0(i64 8, ptr %10) #18
  %17 = load i64, ptr %6, align 8, !tbaa !11
  %18 = trunc i64 %17 to i32
  %19 = shl i32 1, %18
  %20 = sext i32 %19 to i64
  store i64 %20, ptr %10, align 8, !tbaa !11
  call void @llvm.lifetime.start.p0(i64 8, ptr %11) #18
  %21 = load ptr, ptr %7, align 8, !tbaa !15
  store ptr %21, ptr %11, align 8, !tbaa !15
  call void @llvm.lifetime.start.p0(i64 4, ptr %12) #18
  store float 0.000000e+00, ptr %12, align 4, !tbaa !73
  call void @llvm.lifetime.start.p0(i64 8, ptr %13) #18
  store i64 0, ptr %13, align 8, !tbaa !11
  br label %22

22:                                               ; preds = %37, %4
  %23 = load i64, ptr %13, align 8, !tbaa !11
  %24 = load i64, ptr %5, align 8, !tbaa !11
  %25 = icmp ult i64 %23, %24
  br i1 %25, label %27, label %26

26:                                               ; preds = %22
  call void @llvm.lifetime.end.p0(i64 8, ptr %13) #18
  br label %40

27:                                               ; preds = %22
  %28 = load ptr, ptr %11, align 8, !tbaa !15
  %29 = call noundef i64 @_ZN5faiss11PQDecoder166decodeEv(ptr noundef nonnull align 8 dereferenceable(8) %9)
  %30 = getelementptr inbounds nuw float, ptr %28, i64 %29
  %31 = load float, ptr %30, align 4, !tbaa !73
  %32 = load float, ptr %12, align 4, !tbaa !73
  %33 = fadd float %32, %31
  store float %33, ptr %12, align 4, !tbaa !73
  %34 = load i64, ptr %10, align 8, !tbaa !11
  %35 = load ptr, ptr %11, align 8, !tbaa !15
  %36 = getelementptr inbounds nuw float, ptr %35, i64 %34
  store ptr %36, ptr %11, align 8, !tbaa !15
  br label %37

37:                                               ; preds = %27
  %38 = load i64, ptr %13, align 8, !tbaa !11
  %39 = add i64 %38, 1
  store i64 %39, ptr %13, align 8, !tbaa !11
  br label %22, !llvm.loop !577

40:                                               ; preds = %26
  %41 = load float, ptr %12, align 4, !tbaa !73
  call void @llvm.lifetime.end.p0(i64 4, ptr %12) #18
  call void @llvm.lifetime.end.p0(i64 8, ptr %11) #18
  call void @llvm.lifetime.end.p0(i64 8, ptr %10) #18
  call void @llvm.lifetime.end.p0(i64 8, ptr %9) #18
  ret float %41
}

; Function Attrs: inlinehint mustprogress uwtable
define linkonce_odr noundef float @_ZN5faiss20distance_single_codeINS_11PQDecoder16EEEfmmPKfPKh(i64 noundef %0, i64 noundef %1, ptr noundef %2, ptr noundef %3) #7 comdat {
  %5 = alloca i64, align 8
  %6 = alloca i64, align 8
  %7 = alloca ptr, align 8
  %8 = alloca ptr, align 8
  store i64 %0, ptr %5, align 8, !tbaa !11
  store i64 %1, ptr %6, align 8, !tbaa !11
  store ptr %2, ptr %7, align 8, !tbaa !15
  store ptr %3, ptr %8, align 8, !tbaa !13
  %9 = load i64, ptr %5, align 8, !tbaa !11
  %10 = load i64, ptr %6, align 8, !tbaa !11
  %11 = load ptr, ptr %7, align 8, !tbaa !15
  %12 = load ptr, ptr %8, align 8, !tbaa !13
  %13 = call noundef float @_ZN5faiss28distance_single_code_genericINS_11PQDecoder16EEEfmmPKfPKh(i64 noundef %9, i64 noundef %10, ptr noundef %11, ptr noundef %12)
  ret float %13
}

; Function Attrs: mustprogress uwtable
define internal noundef float @_ZNK5faiss12_GLOBAL__N_112IVFPQScannerILNS_10MetricTypeE0ENS_4CMinIflEENS_11PQDecoder16ELb1EE16distance_to_codeEPKh(ptr noundef nonnull align 8 dereferenceable(264) %0, ptr noundef %1) unnamed_addr #2 align 2 {
  %3 = alloca ptr, align 8
  %4 = alloca ptr, align 8
  %5 = alloca float, align 4
  store ptr %0, ptr %3, align 8, !tbaa !562
  store ptr %1, ptr %4, align 8, !tbaa !13
  %6 = load ptr, ptr %3, align 8
  call void @llvm.lifetime.start.p0(i64 4, ptr %5) #18
  %7 = getelementptr inbounds i8, ptr %6, i64 40
  %8 = getelementptr inbounds nuw %"struct.faiss::(anonymous namespace)::IVFPQScannerT.63", ptr %7, i32 0, i32 4
  %9 = load float, ptr %8, align 8, !tbaa !576
  %10 = getelementptr inbounds i8, ptr %6, i64 40
  %11 = getelementptr inbounds nuw %"struct.faiss::(anonymous namespace)::QueryTables", ptr %10, i32 0, i32 3
  %12 = load ptr, ptr %11, align 8, !tbaa !289
  %13 = getelementptr inbounds nuw %"struct.faiss::ProductQuantizer", ptr %12, i32 0, i32 1
  %14 = load i64, ptr %13, align 8, !tbaa !239
  %15 = getelementptr inbounds i8, ptr %6, i64 40
  %16 = getelementptr inbounds nuw %"struct.faiss::(anonymous namespace)::QueryTables", ptr %15, i32 0, i32 3
  %17 = load ptr, ptr %16, align 8, !tbaa !289
  %18 = getelementptr inbounds nuw %"struct.faiss::ProductQuantizer", ptr %17, i32 0, i32 2
  %19 = load i64, ptr %18, align 8, !tbaa !290
  %20 = getelementptr inbounds i8, ptr %6, i64 40
  %21 = getelementptr inbounds nuw %"struct.faiss::(anonymous namespace)::QueryTables", ptr %20, i32 0, i32 8
  %22 = load ptr, ptr %21, align 8, !tbaa !291
  %23 = load ptr, ptr %4, align 8, !tbaa !13
  %24 = call noundef float @_ZN5faiss20distance_single_codeINS_11PQDecoder16EEEfmmPKfPKh(i64 noundef %14, i64 noundef %19, ptr noundef %22, ptr noundef %23)
  %25 = fadd float %9, %24
  store float %25, ptr %5, align 4, !tbaa !73
  %26 = load float, ptr %5, align 4, !tbaa !73
  call void @llvm.lifetime.end.p0(i64 4, ptr %5) #18
  ret float %26
}